target datalayout = "e-m:e-p270:32:32-p271:32:32-p272:64:64-i64:64-i128:128-f80:128-n8:16:32:64-S128"
target triple = "x86_64-pc-linux-gnu"

@global_oml_dialect = internal global i32 0, align 4
@.str.260 = private unnamed_addr constant [3 x i8] c"%s\00", align 1
@.str.261 = private unnamed_addr constant [15 x i8] c"Unknown 0x%02x\00", align 1

; Function Attrs: null_pointer_is_valid sspstrong uwtable
define internal void @format_custom_msgtype(ptr noundef %0, i32 noundef %1) #0 {
  %3 = alloca ptr, align 8
  %4 = alloca i32, align 4
  %5 = alloca ptr, align 8
  %6 = alloca ptr, align 8
  store ptr %0, ptr %3, align 8
  store i32 %1, ptr %4, align 4
  call void @llvm.lifetime.start.p0(i64 8, ptr %5) #5
  store ptr null, ptr %5, align 8
  call void @llvm.lifetime.start.p0(i64 8, ptr %6) #5
  %7 = load i32, ptr @global_oml_dialect, align 4
  switch i32 %7, label %15 [
    i32 1, label %8
    i32 2, label %11
    i32 0, label %14
  ]

8:                                                ; preds = %2
  %9 = load i32, ptr %4, align 4
  %10 = call ptr @try_val_to_str(i32 noundef %9, ptr noundef @oml_fom_msgtype_vals_bs11)
  store ptr %10, ptr %5, align 8
  br label %16

11:                                               ; preds = %2
  %12 = load i32, ptr %4, align 4
  %13 = call ptr @try_val_to_str(i32 noundef %12, ptr noundef @oml_fom_msgtype_vals_ipa)
  store ptr %13, ptr %5, align 8
  br label %16

14:                                               ; preds = %2
  br label %15

15:                                               ; preds = %2, %14
  br label %16

16:                                               ; preds = %15, %11, %8
  %17 = load ptr, ptr %5, align 8
  %18 = icmp ne ptr %17, null
  br i1 %18, label %19, label %25

19:                                               ; preds = %16
  %20 = load ptr, ptr %3, align 8
  %21 = load ptr, ptr %3, align 8
  %22 = call i64 @llvm.objectsize.i64.p0(ptr %21, i1 false, i1 true, i1 true)
  %23 = load ptr, ptr %5, align 8
  %24 = call i32 (ptr, i64, i32, i64, ptr, ...) @__snprintf_chk(ptr noundef %20, i64 noundef 240, i32 noundef 2, i64 noundef %22, ptr noundef @.str.260, ptr noundef %23)
  br label %34

25:                                               ; preds = %16
  %26 = load i32, ptr %4, align 4
  %27 = call ptr @val_to_str_wmem(ptr noundef null, i32 noundef %26, ptr noundef @oml_fom_msgtype_vals, ptr noundef @.str.261)
  store ptr %27, ptr %6, align 8
  %28 = load ptr, ptr %3, align 8
  %29 = load ptr, ptr %3, align 8
  %30 = call i64 @llvm.objectsize.i64.p0(ptr %29, i1 false, i1 true, i1 true)
  %31 = load ptr, ptr %6, align 8
  %32 = call i32 (ptr, i64, i32, i64, ptr, ...) @__snprintf_chk(ptr noundef %28, i64 noundef 240, i32 noundef 2, i64 noundef %30, ptr noundef @.str.260, ptr noundef %31)
  %33 = load ptr, ptr %6, align 8
  call void @wmem_free(ptr noundef null, ptr noundef %33)
  br label %34

34:                                               ; preds = %25, %19
  call void @llvm.lifetime.end.p0(i64 8, ptr %6) #5
  call void @llvm.lifetime.end.p0(i64 8, ptr %5) #5
  ret void
}