; Function Attrs: null_pointer_is_valid sspstrong uwtable
define internal void @format_custom_msgtype(ptr noundef %0, i32 noundef %1) #0 {
  %3 = load i32, ptr @global_oml_dialect, align 4
  switch i32 %3, label %.thread [
    i32 1, label %5
    i32 2, label %4
  ]

4:                                                ; preds = %2
  br label %5

5:                                                ; preds = %2, %4
  %oml_fom_msgtype_vals_ipa.sink = phi ptr [ @oml_fom_msgtype_vals_ipa, %4 ], [ @oml_fom_msgtype_vals_bs11, %2 ]
  %6 = tail call ptr @try_val_to_str(i32 noundef %1, ptr noundef nonnull %oml_fom_msgtype_vals_ipa.sink)
  %.not = icmp eq ptr %6, null
  br i1 %.not, label %.thread, label %7

7:                                                ; preds = %5
  %8 = tail call i32 (ptr, i64, i32, i64, ptr, ...) @__snprintf_chk(ptr noundef %0, i64 noundef 240, i32 noundef 2, i64 noundef -1, ptr noundef nonnull @.str.260, ptr noundef nonnull %6)
  br label %11

.thread:                                          ; preds = %2, %5
  %9 = tail call ptr @val_to_str_wmem(ptr noundef null, i32 noundef %1, ptr noundef nonnull @oml_fom_msgtype_vals, ptr noundef nonnull @.str.261)
  %10 = tail call i32 (ptr, i64, i32, i64, ptr, ...) @__snprintf_chk(ptr noundef %0, i64 noundef 240, i32 noundef 2, i64 noundef -1, ptr noundef nonnull @.str.260, ptr noundef %9)
  tail call void @wmem_free(ptr noundef null, ptr noundef %9)
  br label %11

11:                                               ; preds = %.thread, %7
  ret void
}